target datalayout = "e-m:e-p270:32:32-p271:32:32-p272:64:64-i64:64-i128:128-f80:128-n8:16:32:64-S128"
target triple = "x86_64-pc-linux-gnu"

%struct.DCAADPCMEncContext = type { ptr }

@ff_dca_adpcm_vb = external constant [4096 x [4 x i16]], align 16

; Function Attrs: nounwind uwtable
define internal void @precalc(ptr noundef %0) #0 {
  %2 = alloca ptr, align 8
  %3 = alloca i32, align 4
  %4 = alloca i32, align 4
  %5 = alloca i32, align 4
  %6 = alloca i32, align 4
  %7 = alloca i32, align 4
  store ptr %0, ptr %2, align 8, !tbaa !9
  call void @llvm.lifetime.start.p0(i64 4, ptr %3) #8
  call void @llvm.lifetime.start.p0(i64 4, ptr %4) #8
  call void @llvm.lifetime.start.p0(i64 4, ptr %5) #8
  store i32 0, ptr %3, align 4, !tbaa !11
  br label %8

8:                                                ; preds = %61, %1
  %9 = load i32, ptr %3, align 4, !tbaa !11
  %10 = icmp slt i32 %9, 4096
  br i1 %10, label %11, label %64

11:                                               ; preds = %8
  call void @llvm.lifetime.start.p0(i64 4, ptr %6) #8
  store i32 0, ptr %6, align 4, !tbaa !11
  call void @llvm.lifetime.start.p0(i64 4, ptr %7) #8
  store i32 0, ptr %7, align 4, !tbaa !11
  store i32 0, ptr %4, align 4, !tbaa !11
  br label %12

12:                                               ; preds = %55, %11
  %13 = load i32, ptr %4, align 4, !tbaa !11
  %14 = icmp slt i32 %13, 4
  br i1 %14, label %15, label %58

15:                                               ; preds = %12
  %16 = load i32, ptr %4, align 4, !tbaa !11
  store i32 %16, ptr %5, align 4, !tbaa !11
  br label %17

17:                                               ; preds = %51, %15
  %18 = load i32, ptr %5, align 4, !tbaa !11
  %19 = icmp slt i32 %18, 4
  br i1 %19, label %20, label %54

20:                                               ; preds = %17
  %21 = load i32, ptr %3, align 4, !tbaa !11
  %22 = sext i32 %21 to i64
  %23 = getelementptr inbounds [4096 x [4 x i16]], ptr @ff_dca_adpcm_vb, i64 0, i64 %22
  %24 = load i32, ptr %4, align 4, !tbaa !11
  %25 = sext i32 %24 to i64
  %26 = getelementptr inbounds [4 x i16], ptr %23, i64 0, i64 %25
  %27 = load i16, ptr %26, align 2, !tbaa !29
  %28 = sext i16 %27 to i32
  %29 = load i32, ptr %3, align 4, !tbaa !11
  %30 = sext i32 %29 to i64
  %31 = getelementptr inbounds [4096 x [4 x i16]], ptr @ff_dca_adpcm_vb, i64 0, i64 %30
  %32 = load i32, ptr %5, align 4, !tbaa !11
  %33 = sext i32 %32 to i64
  %34 = getelementptr inbounds [4 x i16], ptr %31, i64 0, i64 %33
  %35 = load i16, ptr %34, align 2, !tbaa !29
  %36 = sext i16 %35 to i32
  %37 = mul nsw i32 %28, %36
  store i32 %37, ptr %7, align 4, !tbaa !11
  %38 = load i32, ptr %4, align 4, !tbaa !11
  %39 = load i32, ptr %5, align 4, !tbaa !11
  %40 = icmp ne i32 %38, %39
  br i1 %40, label %41, label %44

41:                                               ; preds = %20
  %42 = load i32, ptr %7, align 4, !tbaa !11
  %43 = mul nsw i32 %42, 2
  store i32 %43, ptr %7, align 4, !tbaa !11
  br label %44

44:                                               ; preds = %41, %20
  %45 = load i32, ptr %7, align 4, !tbaa !11
  %46 = load ptr, ptr %2, align 8, !tbaa !9
  %47 = load i32, ptr %6, align 4, !tbaa !11
  %48 = add nsw i32 %47, 1
  store i32 %48, ptr %6, align 4, !tbaa !11
  %49 = sext i32 %47 to i64
  %50 = getelementptr inbounds [10 x i32], ptr %46, i64 0, i64 %49
  store i32 %45, ptr %50, align 4, !tbaa !11
  br label %51

51:                                               ; preds = %44
  %52 = load i32, ptr %5, align 4, !tbaa !11
  %53 = add nsw i32 %52, 1
  store i32 %53, ptr %5, align 4, !tbaa !11
  br label %17, !llvm.loop !37

54:                                               ; preds = %17
  br label %55

55:                                               ; preds = %54
  %56 = load i32, ptr %4, align 4, !tbaa !11
  %57 = add nsw i32 %56, 1
  store i32 %57, ptr %4, align 4, !tbaa !11
  br label %12, !llvm.loop !38

58:                                               ; preds = %12
  %59 = load ptr, ptr %2, align 8, !tbaa !9
  %60 = getelementptr inbounds nuw [10 x i32], ptr %59, i32 1
  store ptr %60, ptr %2, align 8, !tbaa !9
  call void @llvm.lifetime.end.p0(i64 4, ptr %7) #8
  call void @llvm.lifetime.end.p0(i64 4, ptr %6) #8
  br label %61

61:                                               ; preds = %58
  %62 = load i32, ptr %3, align 4, !tbaa !11
  %63 = add nsw i32 %62, 1
  store i32 %63, ptr %3, align 4, !tbaa !11
  br label %8, !llvm.loop !39

64:                                               ; preds = %8
  call void @llvm.lifetime.end.p0(i64 4, ptr %5) #8
  call void @llvm.lifetime.end.p0(i64 4, ptr %4) #8
  call void @llvm.lifetime.end.p0(i64 4, ptr %3) #8
  ret void
}

; Function Attrs: cold nounwind optsize uwtable
define i32 @ff_dcaadpcm_init(ptr noundef %0) #5 {
  %2 = alloca i32, align 4
  %3 = alloca ptr, align 8
  store ptr %0, ptr %3, align 8, !tbaa !4
  %4 = load ptr, ptr %3, align 8, !tbaa !4
  %5 = icmp ne ptr %4, null
  br i1 %5, label %7, label %6

6:                                                ; preds = %1
  store i32 -1, ptr %2, align 4
  br label %20

7:                                                ; preds = %1
  %8 = call noalias ptr @av_malloc(i64 noundef 163840)
  %9 = load ptr, ptr %3, align 8, !tbaa !4
  %10 = getelementptr inbounds nuw %struct.DCAADPCMEncContext, ptr %9, i32 0, i32 0
  store ptr %8, ptr %10, align 8, !tbaa !20
  %11 = load ptr, ptr %3, align 8, !tbaa !4
  %12 = getelementptr inbounds nuw %struct.DCAADPCMEncContext, ptr %11, i32 0, i32 0
  %13 = load ptr, ptr %12, align 8, !tbaa !20
  %14 = icmp ne ptr %13, null
  br i1 %14, label %16, label %15

15:                                               ; preds = %7
  store i32 -12, ptr %2, align 4
  br label %20

16:                                               ; preds = %7
  %17 = load ptr, ptr %3, align 8, !tbaa !4
  %18 = getelementptr inbounds nuw %struct.DCAADPCMEncContext, ptr %17, i32 0, i32 0
  %19 = load ptr, ptr %18, align 8, !tbaa !20
  call void @precalc(ptr noundef %19)
  store i32 0, ptr %2, align 4
  br label %20

20:                                               ; preds = %16, %15, %6
  %21 = load i32, ptr %2, align 4
  ret i32 %21
}